; Function Attrs: mustprogress uwtable
define void @_ZN6duckdb13SecretManager14RegisterSecretENS_18CatalogTransactionENS_10unique_ptrIKNS_10BaseSecretESt14default_deleteIS4_ELb1EEENS_16OnCreateConflictENS_17SecretPersistTypeERKNSt7__cxx1112basic_stringIcSt11char_traitsIcESaIcEEE(ptr dead_on_unwind noalias writable sret(%"class.duckdb::unique_ptr.481") align 8 %0, ptr noundef nonnull align 8 dereferenceable(344) %1, ptr noundef readonly byval(%"struct.duckdb::CatalogTransaction") align 8 captures(none) %2, ptr noundef captures(none) %3, i8 noundef zeroext %4, i8 noundef zeroext %5, ptr noundef nonnull align 8 dereferenceable(32) %6) local_unnamed_addr #3 align 2 personality ptr @__gxx_personality_v0 {
  %8 = alloca %"class.duckdb::unique_ptr.546", align 8
  tail call void @_ZN6duckdb13SecretManager17InitializeSecretsENS_18CatalogTransactionE(ptr noundef nonnull align 8 dereferenceable(344) %1, ptr noundef nonnull byval(%"struct.duckdb::CatalogTransaction") align 8 %2)
  %9 = load i64, ptr %3, align 8, !tbaa !140
  store i64 %9, ptr %8, align 8, !tbaa !140
  store ptr null, ptr %3, align 8, !tbaa !140
  invoke void @_ZN6duckdb13SecretManager22RegisterSecretInternalENS_18CatalogTransactionENS_10unique_ptrIKNS_10BaseSecretESt14default_deleteIS4_ELb1EEENS_16OnCreateConflictENS_17SecretPersistTypeERKNSt7__cxx1112basic_stringIcSt11char_traitsIcESaIcEEE(ptr dead_on_unwind writable sret(%"class.duckdb::unique_ptr.481") align 8 %0, ptr noundef nonnull align 8 dereferenceable(344) %1, ptr noundef nonnull byval(%"struct.duckdb::CatalogTransaction") align 8 %2, ptr noundef nonnull %8, i8 noundef zeroext %4, i8 noundef zeroext %5, ptr noundef nonnull align 8 dereferenceable(32) %6)
          to label %10 unwind label %15

10:                                               ; preds = %7
  %11 = load ptr, ptr %8, align 8, !tbaa !140
  %.not.i = icmp eq ptr %11, null
  br i1 %.not.i, label %_ZNSt10unique_ptrIKN6duckdb10BaseSecretESt14default_deleteIS2_EED2Ev.exit, label %_ZNKSt14default_deleteIKN6duckdb10BaseSecretEEclEPS2_.exit.i

_ZNKSt14default_deleteIKN6duckdb10BaseSecretEEclEPS2_.exit.i: ; preds = %10
  %12 = load ptr, ptr %11, align 8, !tbaa !17
  %13 = getelementptr inbounds nuw i8, ptr %12, i64 8
  %14 = load ptr, ptr %13, align 8
  call void %14(ptr noundef nonnull align 8 dereferenceable(129) %11) #33
  br label %_ZNSt10unique_ptrIKN6duckdb10BaseSecretESt14default_deleteIS2_EED2Ev.exit

_ZNSt10unique_ptrIKN6duckdb10BaseSecretESt14default_deleteIS2_EED2Ev.exit: ; preds = %10, %_ZNKSt14default_deleteIKN6duckdb10BaseSecretEEclEPS2_.exit.i
  ret void

15:                                               ; preds = %7
  %16 = landingpad { ptr, i32 }
          cleanup
  %17 = load ptr, ptr %8, align 8, !tbaa !140
  %.not.i5 = icmp eq ptr %17, null
  br i1 %.not.i5, label %_ZNSt10unique_ptrIKN6duckdb10BaseSecretESt14default_deleteIS2_EED2Ev.exit7, label %_ZNKSt14default_deleteIKN6duckdb10BaseSecretEEclEPS2_.exit.i6

_ZNKSt14default_deleteIKN6duckdb10BaseSecretEEclEPS2_.exit.i6: ; preds = %15
  %18 = load ptr, ptr %17, align 8, !tbaa !17
  %19 = getelementptr inbounds nuw i8, ptr %18, i64 8
  %20 = load ptr, ptr %19, align 8
  call void %20(ptr noundef nonnull align 8 dereferenceable(129) %17) #33
  br label %_ZNSt10unique_ptrIKN6duckdb10BaseSecretESt14default_deleteIS2_EED2Ev.exit7

_ZNSt10unique_ptrIKN6duckdb10BaseSecretESt14default_deleteIS2_EED2Ev.exit7: ; preds = %15, %_ZNKSt14default_deleteIKN6duckdb10BaseSecretEEclEPS2_.exit.i6
  resume { ptr, i32 } %16
}